target datalayout = "e-m:e-p270:32:32-p271:32:32-p272:64:64-i64:64-i128:128-f80:128-n8:16:32:64-S128"
target triple = "x86_64-pc-linux-gnu"

%"class.std::__cxx11::basic_string" = type { %"struct.std::__cxx11::basic_string<char>::_Alloc_hider", i64, %union.anon }
%"struct.std::__cxx11::basic_string<char>::_Alloc_hider" = type { ptr }
%union.anon = type { i64, [8 x i8] }
%struct.ScopedTempDir = type { %"class.std::__cxx11::basic_string", %"class.std::__cxx11::basic_string" }

@.str.20 = private unnamed_addr constant [10 x i8] c"chdir: %s\00", align 1
@.str.23 = private unnamed_addr constant [8 x i8] c"rm -rf \00", align 1
@.str.24 = private unnamed_addr constant [11 x i8] c"system: %s\00", align 1

; Function Attrs: mustprogress uwtable
define dso_local void @_ZN13ScopedTempDir7CleanupEv(ptr noundef nonnull align 8 dereferenceable(64) %0) #4 align 2 personality ptr @__gxx_personality_v0 {
  %2 = alloca ptr, align 8
  %3 = alloca %"class.std::__cxx11::basic_string", align 8
  %4 = alloca ptr, align 8
  %5 = alloca i32, align 4
  store ptr %0, ptr %2, align 8
  %6 = load ptr, ptr %2, align 8
  %7 = getelementptr inbounds %struct.ScopedTempDir, ptr %6, i32 0, i32 1
  %8 = call noundef zeroext i1 @_ZNKSt7__cxx1112basic_stringIcSt11char_traitsIcESaIcEE5emptyEv(ptr noundef nonnull align 8 dereferenceable(32) %7) #3
  br i1 %8, label %9, label %10

9:                                                ; preds = %1
  br label %36

10:                                               ; preds = %1
  %11 = getelementptr inbounds %struct.ScopedTempDir, ptr %6, i32 0, i32 0
  %12 = call noundef ptr @_ZNKSt7__cxx1112basic_stringIcSt11char_traitsIcESaIcEE5c_strEv(ptr noundef nonnull align 8 dereferenceable(32) %11) #3
  %13 = call i32 @chdir(ptr noundef %12) #3
  %14 = icmp slt i32 %13, 0
  br i1 %14, label %15, label %19

15:                                               ; preds = %10
  %16 = call ptr @__errno_location() #17
  %17 = load i32, ptr %16, align 4
  %18 = call ptr @strerror(i32 noundef %17) #3
  call void (ptr, ...) @_Z5FatalPKcz(ptr noundef @.str.20, ptr noundef %18) #16
  unreachable

19:                                               ; preds = %10
  %20 = getelementptr inbounds %struct.ScopedTempDir, ptr %6, i32 0, i32 1
  call void @_ZStplIcSt11char_traitsIcESaIcEENSt7__cxx1112basic_stringIT_T0_T1_EEPKS5_RKS8_(ptr dead_on_unwind writable sret(%"class.std::__cxx11::basic_string") align 8 %3, ptr noundef @.str.23, ptr noundef nonnull align 8 dereferenceable(32) %20)
  %21 = call noundef ptr @_ZNKSt7__cxx1112basic_stringIcSt11char_traitsIcESaIcEE5c_strEv(ptr noundef nonnull align 8 dereferenceable(32) %3) #3
  %22 = invoke i32 @system(ptr noundef %21)
          to label %23 unwind label %30

23:                                               ; preds = %19
  %24 = icmp slt i32 %22, 0
  br i1 %24, label %25, label %34

25:                                               ; preds = %23
  %26 = call ptr @__errno_location() #17
  %27 = load i32, ptr %26, align 4
  %28 = call ptr @strerror(i32 noundef %27) #3
  invoke void (ptr, ...) @_Z5FatalPKcz(ptr noundef @.str.24, ptr noundef %28) #16
          to label %29 unwind label %30

29:                                               ; preds = %25
  unreachable

30:                                               ; preds = %25, %19
  %31 = landingpad { ptr, i32 }
          cleanup
  %32 = extractvalue { ptr, i32 } %31, 0
  store ptr %32, ptr %4, align 8
  %33 = extractvalue { ptr, i32 } %31, 1
  store i32 %33, ptr %5, align 4
  call void @_ZNSt7__cxx1112basic_stringIcSt11char_traitsIcESaIcEED1Ev(ptr noundef nonnull align 8 dereferenceable(32) %3) #3
  br label %37

34:                                               ; preds = %23
  %35 = getelementptr inbounds %struct.ScopedTempDir, ptr %6, i32 0, i32 1
  call void @_ZNSt7__cxx1112basic_stringIcSt11char_traitsIcESaIcEE5clearEv(ptr noundef nonnull align 8 dereferenceable(32) %35) #3
  call void @_ZNSt7__cxx1112basic_stringIcSt11char_traitsIcESaIcEED1Ev(ptr noundef nonnull align 8 dereferenceable(32) %3) #3
  br label %36

36:                                               ; preds = %34, %9
  ret void

37:                                               ; preds = %30
  %38 = load ptr, ptr %4, align 8
  %39 = load i32, ptr %5, align 4
  %40 = insertvalue { ptr, i32 } poison, ptr %38, 0
  %41 = insertvalue { ptr, i32 } %40, i32 %39, 1
  resume { ptr, i32 } %41
}