; Function Attrs: mustprogress uwtable
define dso_local void @_ZN13ScopedTempDir7CleanupEv(ptr noundef nonnull align 8 dereferenceable(64) %0) local_unnamed_addr #3 align 2 personality ptr @__gxx_personality_v0 {
  %2 = alloca %"class.std::__cxx11::basic_string", align 8
  %3 = getelementptr inbounds i8, ptr %0, i64 32
  %4 = tail call noundef zeroext i1 @_ZNKSt7__cxx1112basic_stringIcSt11char_traitsIcESaIcEE5emptyEv(ptr noundef nonnull align 8 dereferenceable(32) %3) #23
  br i1 %4, label %26, label %5

5:                                                ; preds = %1
  %6 = tail call noundef ptr @_ZNKSt7__cxx1112basic_stringIcSt11char_traitsIcESaIcEE5c_strEv(ptr noundef nonnull align 8 dereferenceable(32) %0) #23
  %7 = tail call i32 @chdir(ptr noundef %6) #23
  %8 = icmp slt i32 %7, 0
  br i1 %8, label %9, label %13

9:                                                ; preds = %5
  %10 = tail call ptr @__errno_location() #29
  %11 = load i32, ptr %10, align 4
  %12 = tail call ptr @strerror(i32 noundef %11) #23
  tail call void (ptr, ...) @_Z5FatalPKcz(ptr noundef nonnull @.str.20, ptr noundef %12) #26
  unreachable

13:                                               ; preds = %5
  call void @_ZStplIcSt11char_traitsIcESaIcEENSt7__cxx1112basic_stringIT_T0_T1_EEPKS5_RKS8_(ptr dead_on_unwind nonnull writable sret(%"class.std::__cxx11::basic_string") align 8 %2, ptr noundef nonnull @.str.23, ptr noundef nonnull align 8 dereferenceable(32) %3)
  %14 = call noundef ptr @_ZNKSt7__cxx1112basic_stringIcSt11char_traitsIcESaIcEE5c_strEv(ptr noundef nonnull align 8 dereferenceable(32) %2) #23
  %15 = invoke i32 @system(ptr noundef %14)
          to label %16 unwind label %23

16:                                               ; preds = %13
  %17 = icmp slt i32 %15, 0
  br i1 %17, label %18, label %25

18:                                               ; preds = %16
  %19 = tail call ptr @__errno_location() #29
  %20 = load i32, ptr %19, align 4
  %21 = call ptr @strerror(i32 noundef %20) #23
  invoke void (ptr, ...) @_Z5FatalPKcz(ptr noundef nonnull @.str.24, ptr noundef %21) #26
          to label %22 unwind label %23

22:                                               ; preds = %18
  unreachable

23:                                               ; preds = %18, %13
  %24 = landingpad { ptr, i32 }
          cleanup
  call void @_ZNSt7__cxx1112basic_stringIcSt11char_traitsIcESaIcEED1Ev(ptr noundef nonnull align 8 dereferenceable(32) %2) #23
  resume { ptr, i32 } %24

25:                                               ; preds = %16
  call void @_ZNSt7__cxx1112basic_stringIcSt11char_traitsIcESaIcEE5clearEv(ptr noundef nonnull align 8 dereferenceable(32) %3) #23
  call void @_ZNSt7__cxx1112basic_stringIcSt11char_traitsIcESaIcEED1Ev(ptr noundef nonnull align 8 dereferenceable(32) %2) #23
  br label %26

26:                                               ; preds = %1, %25
  ret void
}